(dp0
S'OriginalConfig'
p1
ccopy_reg
_reconstructor
p2
(cWMCore.Configuration
Configuration
p3
c__builtin__
object
p4
Ntp5
Rp6
(dp7
S'Site'
p8
g2
(cWMCore.Configuration
ConfigSection
p9
g4
Ntp10
Rp11
(dp12
S'_internal_skipChecks'
p13
I00
sS'_internal_documentation'
p14
S''
p15
sS'_internal_settings'
p16
c__builtin__
set
p17
((lp18
S'storageSite'
p19
atp20
Rp21
sS'_internal_name'
p22
g8
sS'_internal_docstrings'
p23
(dp24
sS'_internal_children'
p25
g17
((lp26
tp27
Rp28
sg19
S'T3_US_FNALLPC'
p29
sS'_internal_parent_ref'
p30
NsbsS'_internal_sections'
p31
(lp32
S'General'
p33
aS'JobType'
p34
aS'Data'
p35
ag8
aS'User'
p36
aS'Debug'
p37
asg36
g2
(g9
g4
Ntp38
Rp39
(dp40
g13
I00
sg14
g15
sg16
g17
((lp41
tp42
Rp43
sg22
g36
sg23
(dp44
sg25
g17
((lp45
tp46
Rp47
sg30
Nsbsg37
g2
(g9
g4
Ntp48
Rp49
(dp50
g13
I00
sg14
g15
sg16
g17
((lp51
tp52
Rp53
sg22
g37
sg23
(dp54
sg25
g17
((lp55
tp56
Rp57
sg30
Nsbsg33
g2
(g9
g4
Ntp58
Rp59
(dp60
S'transferLogs'
p61
I00
sg13
I00
sg14
g15
sg16
g17
((lp62
g61
aS'transferOutputs'
p63
aS'workArea'
p64
aS'requestName'
p65
atp66
Rp67
sg22
g33
sg23
(dp68
sg63
I01
sg25
g17
((lp69
tp70
Rp71
sg65
S'iDMe_MET_Run2018C_2024_07_23-15_41'
p72
sg30
Nsg64
S'/uscms_data/d3/kyungmip/CMSSW_10_6_26/src/iDMe/AODSkimmer/crab/submissions_ElectronNtuplizer/'
p73
sbsg35
g2
(g9
g4
Ntp74
Rp75
(dp76
S'inputDataset'
p77
S'/MET/Run2018C-UL2018_MiniAODv2-v1/MINIAOD'
p78
sg13
I00
sg14
g15
sg16
g17
((lp79
g77
aS'lumiMask'
p80
aS'splitting'
p81
aS'outLFNDirBase'
p82
aS'publication'
p83
atp84
Rp85
sg22
g35
sg81
S'Automatic'
p86
sg23
(dp87
sg25
g17
((lp88
tp89
Rp90
sg82
S'/store/group/lpcmetx/iDMe/Samples/Ntuples/data_MET_v5_HEMvetoBugFix/2018/Data_MET_UL18/MET_Run2018C/'
p91
sg30
Nsg80
S'../data_info/Cert_314472-325175_13TeV_Legacy2018_Collisions18_JSON.txt'
p92
sg83
I00
sbsg34
g2
(g9
g4
Ntp93
Rp94
(dp95
S'outputFiles'
p96
(lp97
S'MET_Run2018C.root'
p98
asS'numCores'
p99
I1
sg13
I00
sS'pyCfgParams'
p100
(lp101
S'numThreads=1'
p102
aS'outfile=MET_Run2018C.root'
p103
aS'data=1'
p104
aS'signal=0'
p105
asg14
g15
sg16
g17
((lp106
g96
ag99
ag100
aS'pluginName'
p107
aS'allowUndistributedCMSSW'
p108
aS'psetName'
p109
atp110
Rp111
sg22
g34
sg23
(dp112
sg107
S'Analysis'
p113
sg25
g17
((lp114
tp115
Rp116
sg108
I01
sg109
S'/uscms_data/d3/kyungmip/CMSSW_10_6_26/src/iDMe/AODSkimmer/scripts/ElectronNtuplizer_cfg.py'
p117
sg30
NsbsbsS'voGroup'
p118
g15
sS'Server'
p119
S'cmsweb.cern.ch'
p120
sS'instance'
p121
S'prod'
p122
sS'RequestName'
p123
V240723_204206:kypark_crab_iDMe_MET_Run2018C_2024_07_23-15_41
p124
sS'voRole'
p125
S'NULL'
p126
sS'Port'
p127
g15
s.