(dp0
S'OriginalConfig'
p1
ccopy_reg
_reconstructor
p2
(cWMCore.Configuration
Configuration
p3
c__builtin__
object
p4
Ntp5
Rp6
(dp7
S'Site'
p8
g2
(cWMCore.Configuration
ConfigSection
p9
g4
Ntp10
Rp11
(dp12
S'_internal_skipChecks'
p13
I00
sS'_internal_documentation'
p14
S''
p15
sS'_internal_settings'
p16
c__builtin__
set
p17
((lp18
S'storageSite'
p19
atp20
Rp21
sS'_internal_name'
p22
g8
sS'_internal_docstrings'
p23
(dp24
sS'_internal_children'
p25
g17
((lp26
tp27
Rp28
sg19
S'T3_US_FNALLPC'
p29
sS'_internal_parent_ref'
p30
NsbsS'_internal_sections'
p31
(lp32
S'General'
p33
aS'JobType'
p34
aS'Data'
p35
ag8
aS'User'
p36
aS'Debug'
p37
asg36
g2
(g9
g4
Ntp38
Rp39
(dp40
g13
I00
sg14
g15
sg16
g17
((lp41
tp42
Rp43
sg22
g36
sg23
(dp44
sg25
g17
((lp45
tp46
Rp47
sg30
Nsbsg37
g2
(g9
g4
Ntp48
Rp49
(dp50
g13
I00
sg14
g15
sg16
g17
((lp51
tp52
Rp53
sg22
g37
sg23
(dp54
sg25
g17
((lp55
tp56
Rp57
sg30
Nsbsg33
g2
(g9
g4
Ntp58
Rp59
(dp60
S'transferLogs'
p61
I00
sg13
I00
sg14
g15
sg16
g17
((lp62
g61
aS'transferOutputs'
p63
aS'workArea'
p64
aS'requestName'
p65
atp66
Rp67
sg22
g33
sg23
(dp68
sg63
I01
sg25
g17
((lp69
tp70
Rp71
sg65
S'iDMe_TTZToQQ_2024_07_19-11_29'
p72
sg30
Nsg64
S'/uscms_data/d3/kyungmip/CMSSW_10_6_26/src/iDMe/AODSkimmer/crab/submissions_ElectronNtuplizer/'
p73
sbsg35
g2
(g9
g4
Ntp74
Rp75
(dp76
S'inputDataset'
p77
S'/TTZToQQ_TuneCP5_13TeV-amcatnlo-pythia8/RunIISummer20UL18MiniAODv2-106X_upgrade2018_realistic_v16_L1v1-v1/MINIAODSIM'
p78
sg13
I00
sg14
g15
sg16
g17
((lp79
g77
aS'outLFNDirBase'
p80
aS'splitting'
p81
aS'publication'
p82
atp83
Rp84
sg22
g35
sg81
S'Automatic'
p85
sg23
(dp86
sg25
g17
((lp87
tp88
Rp89
sg80
S'/store/group/lpcmetx/iDMe/Samples/Ntuples/background_v10_5_miniAOD/2018/TTX/TTZToQQ/'
p90
sg30
Nsg82
I00
sbsg34
g2
(g9
g4
Ntp91
Rp92
(dp93
S'outputFiles'
p94
(lp95
S'TTZToQQ.root'
p96
asS'numCores'
p97
I1
sg13
I00
sS'pyCfgParams'
p98
(lp99
S'numThreads=1'
p100
aS'outfile=TTZToQQ.root'
p101
aS'data=0'
p102
aS'signal=0'
p103
asg14
g15
sg16
g17
((lp104
g94
ag97
ag98
aS'pluginName'
p105
aS'allowUndistributedCMSSW'
p106
aS'psetName'
p107
atp108
Rp109
sg22
g34
sg23
(dp110
sg105
S'Analysis'
p111
sg25
g17
((lp112
tp113
Rp114
sg106
I01
sg107
S'/uscms_data/d3/kyungmip/CMSSW_10_6_26/src/iDMe/AODSkimmer/scripts/ElectronNtuplizer_cfg.py'
p115
sg30
NsbsbsS'voGroup'
p116
g15
sS'Server'
p117
S'cmsweb.cern.ch'
p118
sS'instance'
p119
S'prod'
p120
sS'RequestName'
p121
V240719_163021:kypark_crab_iDMe_TTZToQQ_2024_07_19-11_29
p122
sS'voRole'
p123
S'NULL'
p124
sS'Port'
p125
g15
s.